target datalayout = "e-m:e-p270:32:32-p271:32:32-p272:64:64-i64:64-i128:128-f80:128-n8:16:32:64-S128"
target triple = "x86_64-pc-linux-gnu"

%struct.H5CX_node_t = type { %struct.H5CX_t, ptr }
%struct.H5CX_t = type { i64, ptr, i64, ptr, i64, ptr, i64, ptr, i64, ptr, i64, ptr, i64, i32, i64, i8, ptr, i8, ptr, i8, i32, i8, [3 x double], i8, i64, i8, i32, i8, %struct.H5Z_cb_t, i8, ptr, i8, %struct.H5T_vlen_alloc_info_t, i8, %struct.H5T_conv_cb_t, i8, i32, i8, i8, i8, i32, i8, i8, i32, i8, i8, i32, i8, i32, i8, i64, i8, i8, i8, i8, i8, ptr, i8, ptr, i8, i32, i8, i32, i8, %struct.H5VL_connector_prop_t, i8, ptr, i8 }
%struct.H5Z_cb_t = type { ptr, ptr }
%struct.H5T_vlen_alloc_info_t = type { ptr, ptr, ptr, ptr }
%struct.H5T_conv_cb_t = type { ptr, ptr }
%struct.H5VL_connector_prop_t = type { ptr, ptr }
%struct.H5ES_t = type { i64, ptr, ptr, ptr, ptr, %struct.H5ES_event_list_t, i8, %struct.H5ES_event_list_t }
%struct.H5ES_event_list_t = type { i64, ptr, ptr }

@H5_libinit_g = external global i8, align 1
@H5_libterm_g = external global i8, align 1
@.str = private unnamed_addr constant [98 x i8] c"generated/home/dtcxzyw/WorkSpace/Projects/compilers/llvm-opt-benchmark/bench/hdf5/hdf5/src/H5ES.c\00", align 1
@H5E_FUNC_g = external global i64, align 8
@H5E_CANTINIT_g = external global i64, align 8
@.str.1 = private unnamed_addr constant [30 x i8] c"library initialization failed\00", align 1
@H5ES_init_g = external global i8, align 1
@.str.2 = private unnamed_addr constant [32 x i8] c"interface initialization failed\00", align 1
@H5E_CANTSET_g = external global i64, align 8
@.str.3 = private unnamed_addr constant [22 x i8] c"can't set API context\00", align 1
@H5E_EVENTSET_g = external global i64, align 8
@H5E_ARGS_g = external global i64, align 8
@H5E_BADTYPE_g = external global i64, align 8
@.str.6 = private unnamed_addr constant [29 x i8] c"invalid event set identifier\00", align 1
@H5E_BADVALUE_g = external global i64, align 8
@__func__.H5ESget_requests = private unnamed_addr constant [17 x i8] c"H5ESget_requests\00", align 1
@.str.10 = private unnamed_addr constant [34 x i8] c"invalid iteration order specified\00", align 1
@H5E_CANTGET_g = external global i64, align 8
@.str.11 = private unnamed_addr constant [19 x i8] c"can't get requests\00", align 1

; Function Attrs: nounwind uwtable
define i32 @H5ESget_requests(i64 noundef %0, i32 noundef %1, ptr noundef %2, ptr noundef %3, i64 noundef %4, ptr noundef %5) #0 {
  %7 = alloca i64, align 8
  %8 = alloca i32, align 4
  %9 = alloca ptr, align 8
  %10 = alloca ptr, align 8
  %11 = alloca i64, align 8
  %12 = alloca ptr, align 8
  %13 = alloca ptr, align 8
  %14 = alloca i32, align 4
  %15 = alloca %struct.H5CX_node_t, align 8
  %16 = alloca i8, align 1
  %17 = alloca i8, align 1
  store i64 %0, ptr %7, align 8, !tbaa !3
  store i32 %1, ptr %8, align 4, !tbaa !17
  store ptr %2, ptr %9, align 8, !tbaa !19
  store ptr %3, ptr %10, align 8, !tbaa !14
  store i64 %4, ptr %11, align 8, !tbaa !3
  store ptr %5, ptr %12, align 8, !tbaa !19
  call void @llvm.lifetime.start.p0(i64 8, ptr %13) #5
  call void @llvm.lifetime.start.p0(i64 4, ptr %14) #5
  store i32 0, ptr %14, align 4, !tbaa !17
  call void @llvm.lifetime.start.p0(i64 480, ptr %15) #5
  call void @llvm.memset.p0.i64(ptr align 8 %15, i8 0, i64 480, i1 false)
  call void @llvm.lifetime.start.p0(i64 1, ptr %16) #5
  store i8 0, ptr %16, align 1, !tbaa !7
  call void @llvm.lifetime.start.p0(i64 1, ptr %17) #5
  store i8 0, ptr %17, align 1, !tbaa !7
  br label %18

18:                                               ; preds = %6
  %19 = load i8, ptr @H5_libinit_g, align 1, !tbaa !7, !range !9, !noundef !10
  %20 = trunc i8 %19 to i1
  br i1 %20, label %25, label %21

21:                                               ; preds = %18
  %22 = load i8, ptr @H5_libterm_g, align 1, !tbaa !7, !range !9, !noundef !10
  %23 = trunc i8 %22 to i1
  %24 = xor i1 %23, true
  br label %25

25:                                               ; preds = %21, %18
  %26 = phi i1 [ false, %18 ], [ %24, %21 ]
  %27 = xor i1 %26, true
  %28 = xor i1 %27, true
  %29 = zext i1 %28 to i32
  %30 = sext i32 %29 to i64
  %31 = call i64 @llvm.expect.i64(i64 %30, i64 0)
  %32 = icmp ne i64 %31, 0
  br i1 %32, label %33, label %62

33:                                               ; preds = %25
  %34 = call i32 @H5_init_library()
  %35 = icmp slt i32 %34, 0
  %36 = xor i1 %35, true
  %37 = xor i1 %36, true
  %38 = zext i1 %37 to i32
  %39 = sext i32 %38 to i64
  %40 = call i64 @llvm.expect.i64(i64 %39, i64 0)
  %41 = icmp ne i64 %40, 0
  br i1 %41, label %42, label %61

42:                                               ; preds = %33
  br label %43

43:                                               ; preds = %42
  br label %44

44:                                               ; preds = %43
  br label %45

45:                                               ; preds = %44
  %46 = load i64, ptr @H5E_FUNC_g, align 8, !tbaa !3
  %47 = load i64, ptr @H5E_CANTINIT_g, align 8, !tbaa !3
  %48 = call i32 (ptr, ptr, i32, i64, i64, ptr, ...) @H5E_printf_stack(ptr noundef @.str, ptr noundef @__func__.H5ESget_requests, i32 noundef 241, i64 noundef %46, i64 noundef %47, ptr noundef @.str.1)
  br label %49

49:                                               ; preds = %45
  br label %50

50:                                               ; preds = %49
  store i8 1, ptr %17, align 1, !tbaa !7
  %51 = load i8, ptr %17, align 1, !tbaa !7, !range !9, !noundef !10
  %52 = trunc i8 %51 to i1
  %53 = zext i1 %52 to i8
  store i8 %53, ptr %17, align 1, !tbaa !7
  br label %54

54:                                               ; preds = %50
  br label %55

55:                                               ; preds = %54
  br label %56

56:                                               ; preds = %55
  store i32 -1, ptr %14, align 4, !tbaa !17
  br label %229

57:                                               ; No predecessors!
  br label %58

58:                                               ; preds = %57
  br label %59

59:                                               ; preds = %58
  br label %60

60:                                               ; preds = %59
  br label %61

61:                                               ; preds = %60, %33
  br label %62

62:                                               ; preds = %61, %25
  %63 = load i8, ptr @H5ES_init_g, align 1, !tbaa !7, !range !9, !noundef !10
  %64 = trunc i8 %63 to i1
  br i1 %64, label %69, label %65

65:                                               ; preds = %62
  %66 = load i8, ptr @H5_libterm_g, align 1, !tbaa !7, !range !9, !noundef !10
  %67 = trunc i8 %66 to i1
  %68 = xor i1 %67, true
  br label %69

69:                                               ; preds = %65, %62
  %70 = phi i1 [ false, %62 ], [ %68, %65 ]
  %71 = xor i1 %70, true
  %72 = xor i1 %71, true
  %73 = zext i1 %72 to i32
  %74 = sext i32 %73 to i64
  %75 = call i64 @llvm.expect.i64(i64 %74, i64 0)
  %76 = icmp ne i64 %75, 0
  br i1 %76, label %77, label %100

77:                                               ; preds = %69
  store i8 1, ptr @H5ES_init_g, align 1, !tbaa !7
  %78 = call i32 @H5ES__init_package()
  %79 = icmp slt i32 %78, 0
  br i1 %79, label %80, label %99

80:                                               ; preds = %77
  store i8 0, ptr @H5ES_init_g, align 1, !tbaa !7
  br label %81

81:                                               ; preds = %80
  br label %82

82:                                               ; preds = %81
  br label %83

83:                                               ; preds = %82
  %84 = load i64, ptr @H5E_FUNC_g, align 8, !tbaa !3
  %85 = load i64, ptr @H5E_CANTINIT_g, align 8, !tbaa !3
  %86 = call i32 (ptr, ptr, i32, i64, i64, ptr, ...) @H5E_printf_stack(ptr noundef @.str, ptr noundef @__func__.H5ESget_requests, i32 noundef 241, i64 noundef %84, i64 noundef %85, ptr noundef @.str.2)
  br label %87

87:                                               ; preds = %83
  br label %88

88:                                               ; preds = %87
  store i8 1, ptr %17, align 1, !tbaa !7
  %89 = load i8, ptr %17, align 1, !tbaa !7, !range !9, !noundef !10
  %90 = trunc i8 %89 to i1
  %91 = zext i1 %90 to i8
  store i8 %91, ptr %17, align 1, !tbaa !7
  br label %92

92:                                               ; preds = %88
  br label %93

93:                                               ; preds = %92
  br label %94

94:                                               ; preds = %93
  store i32 -1, ptr %14, align 4, !tbaa !17
  br label %229

95:                                               ; No predecessors!
  br label %96

96:                                               ; preds = %95
  br label %97

97:                                               ; preds = %96
  br label %98

98:                                               ; preds = %97
  br label %99

99:                                               ; preds = %98, %77
  br label %100

100:                                              ; preds = %99, %69
  br label %101

101:                                              ; preds = %100
  br label %102

102:                                              ; preds = %101
  br label %103

103:                                              ; preds = %102
  %104 = call i32 @H5CX_push(ptr noundef %15)
  %105 = icmp slt i32 %104, 0
  %106 = xor i1 %105, true
  %107 = xor i1 %106, true
  %108 = zext i1 %107 to i32
  %109 = sext i32 %108 to i64
  %110 = call i64 @llvm.expect.i64(i64 %109, i64 0)
  %111 = icmp ne i64 %110, 0
  br i1 %111, label %112, label %131

112:                                              ; preds = %103
  br label %113

113:                                              ; preds = %112
  br label %114

114:                                              ; preds = %113
  br label %115

115:                                              ; preds = %114
  %116 = load i64, ptr @H5E_FUNC_g, align 8, !tbaa !3
  %117 = load i64, ptr @H5E_CANTSET_g, align 8, !tbaa !3
  %118 = call i32 (ptr, ptr, i32, i64, i64, ptr, ...) @H5E_printf_stack(ptr noundef @.str, ptr noundef @__func__.H5ESget_requests, i32 noundef 241, i64 noundef %116, i64 noundef %117, ptr noundef @.str.3)
  br label %119

119:                                              ; preds = %115
  br label %120

120:                                              ; preds = %119
  store i8 1, ptr %17, align 1, !tbaa !7
  %121 = load i8, ptr %17, align 1, !tbaa !7, !range !9, !noundef !10
  %122 = trunc i8 %121 to i1
  %123 = zext i1 %122 to i8
  store i8 %123, ptr %17, align 1, !tbaa !7
  br label %124

124:                                              ; preds = %120
  br label %125

125:                                              ; preds = %124
  br label %126

126:                                              ; preds = %125
  store i32 -1, ptr %14, align 4, !tbaa !17
  br label %229

127:                                              ; No predecessors!
  br label %128

128:                                              ; preds = %127
  br label %129

129:                                              ; preds = %128
  br label %130

130:                                              ; preds = %129
  br label %132

131:                                              ; preds = %103
  store i8 1, ptr %16, align 1, !tbaa !7
  br label %132

132:                                              ; preds = %131, %130
  br label %133

133:                                              ; preds = %132
  br label %134

134:                                              ; preds = %133
  %135 = call i32 @H5E_clear_stack()
  %136 = load i64, ptr %7, align 8, !tbaa !3
  %137 = call ptr @H5I_object_verify(i64 noundef %136, i32 noundef 16)
  store ptr %137, ptr %13, align 8, !tbaa !11
  %138 = icmp eq ptr null, %137
  br i1 %138, label %139, label %158

139:                                              ; preds = %134
  br label %140

140:                                              ; preds = %139
  br label %141

141:                                              ; preds = %140
  br label %142

142:                                              ; preds = %141
  %143 = load i64, ptr @H5E_ARGS_g, align 8, !tbaa !3
  %144 = load i64, ptr @H5E_BADTYPE_g, align 8, !tbaa !3
  %145 = call i32 (ptr, ptr, i32, i64, i64, ptr, ...) @H5E_printf_stack(ptr noundef @.str, ptr noundef @__func__.H5ESget_requests, i32 noundef 245, i64 noundef %143, i64 noundef %144, ptr noundef @.str.6)
  br label %146

146:                                              ; preds = %142
  br label %147

147:                                              ; preds = %146
  store i8 1, ptr %17, align 1, !tbaa !7
  %148 = load i8, ptr %17, align 1, !tbaa !7, !range !9, !noundef !10
  %149 = trunc i8 %148 to i1
  %150 = zext i1 %149 to i8
  store i8 %150, ptr %17, align 1, !tbaa !7
  br label %151

151:                                              ; preds = %147
  br label %152

152:                                              ; preds = %151
  br label %153

153:                                              ; preds = %152
  store i32 -1, ptr %14, align 4, !tbaa !17
  br label %229

154:                                              ; No predecessors!
  br label %155

155:                                              ; preds = %154
  br label %156

156:                                              ; preds = %155
  br label %157

157:                                              ; preds = %156
  br label %158

158:                                              ; preds = %157, %134
  %159 = load i32, ptr %8, align 4, !tbaa !17
  %160 = icmp sle i32 %159, -1
  br i1 %160, label %164, label %161

161:                                              ; preds = %158
  %162 = load i32, ptr %8, align 4, !tbaa !17
  %163 = icmp sge i32 %162, 3
  br i1 %163, label %164, label %183

164:                                              ; preds = %161, %158
  br label %165

165:                                              ; preds = %164
  br label %166

166:                                              ; preds = %165
  br label %167

167:                                              ; preds = %166
  %168 = load i64, ptr @H5E_ARGS_g, align 8, !tbaa !3
  %169 = load i64, ptr @H5E_BADVALUE_g, align 8, !tbaa !3
  %170 = call i32 (ptr, ptr, i32, i64, i64, ptr, ...) @H5E_printf_stack(ptr noundef @.str, ptr noundef @__func__.H5ESget_requests, i32 noundef 247, i64 noundef %168, i64 noundef %169, ptr noundef @.str.10)
  br label %171

171:                                              ; preds = %167
  br label %172

172:                                              ; preds = %171
  store i8 1, ptr %17, align 1, !tbaa !7
  %173 = load i8, ptr %17, align 1, !tbaa !7, !range !9, !noundef !10
  %174 = trunc i8 %173 to i1
  %175 = zext i1 %174 to i8
  store i8 %175, ptr %17, align 1, !tbaa !7
  br label %176

176:                                              ; preds = %172
  br label %177

177:                                              ; preds = %176
  br label %178

178:                                              ; preds = %177
  store i32 -1, ptr %14, align 4, !tbaa !17
  br label %229

179:                                              ; No predecessors!
  br label %180

180:                                              ; preds = %179
  br label %181

181:                                              ; preds = %180
  br label %182

182:                                              ; preds = %181
  br label %183

183:                                              ; preds = %182, %161
  %184 = load i64, ptr %11, align 8, !tbaa !3
  %185 = icmp ugt i64 %184, 0
  br i1 %185, label %186, label %220

186:                                              ; preds = %183
  %187 = load ptr, ptr %10, align 8, !tbaa !14
  %188 = icmp ne ptr %187, null
  br i1 %188, label %192, label %189

189:                                              ; preds = %186
  %190 = load ptr, ptr %9, align 8, !tbaa !19
  %191 = icmp ne ptr %190, null
  br i1 %191, label %192, label %220

192:                                              ; preds = %189, %186
  %193 = load ptr, ptr %13, align 8, !tbaa !11
  %194 = load i32, ptr %8, align 4, !tbaa !17
  %195 = load ptr, ptr %9, align 8, !tbaa !19
  %196 = load ptr, ptr %10, align 8, !tbaa !14
  %197 = load i64, ptr %11, align 8, !tbaa !3
  %198 = call i32 @H5ES__get_requests(ptr noundef %193, i32 noundef %194, ptr noundef %195, ptr noundef %196, i64 noundef %197)
  %199 = icmp slt i32 %198, 0
  br i1 %199, label %200, label %219

200:                                              ; preds = %192
  br label %201

201:                                              ; preds = %200
  br label %202

202:                                              ; preds = %201
  br label %203

203:                                              ; preds = %202
  %204 = load i64, ptr @H5E_EVENTSET_g, align 8, !tbaa !3
  %205 = load i64, ptr @H5E_CANTGET_g, align 8, !tbaa !3
  %206 = call i32 (ptr, ptr, i32, i64, i64, ptr, ...) @H5E_printf_stack(ptr noundef @.str, ptr noundef @__func__.H5ESget_requests, i32 noundef 252, i64 noundef %204, i64 noundef %205, ptr noundef @.str.11)
  br label %207

207:                                              ; preds = %203
  br label %208

208:                                              ; preds = %207
  store i8 1, ptr %17, align 1, !tbaa !7
  %209 = load i8, ptr %17, align 1, !tbaa !7, !range !9, !noundef !10
  %210 = trunc i8 %209 to i1
  %211 = zext i1 %210 to i8
  store i8 %211, ptr %17, align 1, !tbaa !7
  br label %212

212:                                              ; preds = %208
  br label %213

213:                                              ; preds = %212
  br label %214

214:                                              ; preds = %213
  store i32 -1, ptr %14, align 4, !tbaa !17
  br label %229

215:                                              ; No predecessors!
  br label %216

216:                                              ; preds = %215
  br label %217

217:                                              ; preds = %216
  br label %218

218:                                              ; preds = %217
  br label %219

219:                                              ; preds = %218, %192
  br label %220

220:                                              ; preds = %219, %189, %183
  %221 = load ptr, ptr %12, align 8, !tbaa !19
  %222 = icmp ne ptr %221, null
  br i1 %222, label %223, label %228

223:                                              ; preds = %220
  %224 = load ptr, ptr %13, align 8, !tbaa !11
  %225 = getelementptr inbounds nuw %struct.H5ES_t, ptr %224, i32 0, i32 5
  %226 = call i64 @H5ES__list_count(ptr noundef %225)
  %227 = load ptr, ptr %12, align 8, !tbaa !19
  store i64 %226, ptr %227, align 8, !tbaa !3
  br label %228

228:                                              ; preds = %223, %220
  br label %229

229:                                              ; preds = %228, %214, %178, %153, %126, %94, %56
  %230 = load i8, ptr %16, align 1, !tbaa !7, !range !9, !noundef !10
  %231 = trunc i8 %230 to i1
  %232 = xor i1 %231, true
  %233 = xor i1 %232, true
  %234 = zext i1 %233 to i32
  %235 = sext i32 %234 to i64
  %236 = call i64 @llvm.expect.i64(i64 %235, i64 1)
  %237 = icmp ne i64 %236, 0
  br i1 %237, label %238, label %240

238:                                              ; preds = %229
  %239 = call i32 @H5CX_pop(i1 noundef zeroext true)
  store i8 0, ptr %16, align 1, !tbaa !7
  br label %240

240:                                              ; preds = %238, %229
  %241 = load i8, ptr %17, align 1, !tbaa !7, !range !9, !noundef !10
  %242 = trunc i8 %241 to i1
  %243 = xor i1 %242, true
  %244 = xor i1 %243, true
  %245 = zext i1 %244 to i32
  %246 = sext i32 %245 to i64
  %247 = call i64 @llvm.expect.i64(i64 %246, i64 0)
  %248 = icmp ne i64 %247, 0
  br i1 %248, label %249, label %251

249:                                              ; preds = %240
  %250 = call i32 @H5E_dump_api_stack()
  br label %251

251:                                              ; preds = %249, %240
  %252 = load i32, ptr %14, align 4, !tbaa !17
  call void @llvm.lifetime.end.p0(i64 1, ptr %17) #5
  call void @llvm.lifetime.end.p0(i64 1, ptr %16) #5
  call void @llvm.lifetime.end.p0(i64 480, ptr %15) #5
  call void @llvm.lifetime.end.p0(i64 4, ptr %14) #5
  call void @llvm.lifetime.end.p0(i64 8, ptr %13) #5
  ret i32 %252
}