; Function Attrs: nounwind uwtable
define range(i32 -1, 1) i32 @H5ESget_requests(i64 noundef %0, i32 noundef %1, ptr noundef %2, ptr noundef %3, i64 noundef %4, ptr noundef writeonly captures(address_is_null) %5) local_unnamed_addr #0 {
  %7 = alloca %struct.H5CX_node_t, align 8
  call void @llvm.lifetime.start.p0(i64 480, ptr nonnull %7) #4
  call void @llvm.memset.p0.i64(ptr noundef nonnull align 8 dereferenceable(480) %7, i8 0, i64 480, i1 false)
  %8 = load i8, ptr @H5_libinit_g, align 1, !tbaa !3, !range !7, !noundef !8
  %9 = trunc nuw i8 %8 to i1
  %10 = load i8, ptr @H5_libterm_g, align 1, !range !7
  %11 = trunc nuw i8 %10 to i1
  %12 = select i1 %9, i1 true, i1 %11
  br i1 %12, label %20, label %13, !prof !9

13:                                               ; preds = %6
  %14 = tail call i32 @H5_init_library() #4
  %15 = icmp slt i32 %14, 0
  br i1 %15, label %16, label %._crit_edge, !prof !10

._crit_edge:                                      ; preds = %13
  %.pre = load i8, ptr @H5_libterm_g, align 1, !range !7
  br label %20

16:                                               ; preds = %13
  %17 = load i64, ptr @H5E_FUNC_g, align 8, !tbaa !11
  %18 = load i64, ptr @H5E_CANTINIT_g, align 8, !tbaa !11
  %19 = tail call i32 (ptr, ptr, i32, i64, i64, ptr, ...) @H5E_printf_stack(ptr noundef nonnull @.str, ptr noundef nonnull @__func__.H5ESget_requests, i32 noundef 241, i64 noundef %17, i64 noundef %18, ptr noundef nonnull @.str.1) #4
  br label %.thread40

20:                                               ; preds = %._crit_edge, %6
  %21 = phi i8 [ %.pre, %._crit_edge ], [ %10, %6 ]
  %22 = load i8, ptr @H5ES_init_g, align 1, !tbaa !3, !range !7, !noundef !8
  %23 = trunc nuw i8 %22 to i1
  %24 = trunc nuw i8 %21 to i1
  %25 = select i1 %23, i1 true, i1 %24
  br i1 %25, label %33, label %26, !prof !9

26:                                               ; preds = %20
  store i8 1, ptr @H5ES_init_g, align 1, !tbaa !3
  %27 = tail call i32 @H5ES__init_package() #4
  %28 = icmp slt i32 %27, 0
  br i1 %28, label %29, label %33, !prof !13

29:                                               ; preds = %26
  store i8 0, ptr @H5ES_init_g, align 1, !tbaa !3
  %30 = load i64, ptr @H5E_FUNC_g, align 8, !tbaa !11
  %31 = load i64, ptr @H5E_CANTINIT_g, align 8, !tbaa !11
  %32 = tail call i32 (ptr, ptr, i32, i64, i64, ptr, ...) @H5E_printf_stack(ptr noundef nonnull @.str, ptr noundef nonnull @__func__.H5ESget_requests, i32 noundef 241, i64 noundef %30, i64 noundef %31, ptr noundef nonnull @.str.2) #4
  br label %.thread40

33:                                               ; preds = %20, %26
  %34 = call i32 @H5CX_push(ptr noundef nonnull %7) #4
  %35 = icmp slt i32 %34, 0
  br i1 %35, label %36, label %40, !prof !10

36:                                               ; preds = %33
  %37 = load i64, ptr @H5E_FUNC_g, align 8, !tbaa !11
  %38 = load i64, ptr @H5E_CANTSET_g, align 8, !tbaa !11
  %39 = call i32 (ptr, ptr, i32, i64, i64, ptr, ...) @H5E_printf_stack(ptr noundef nonnull @.str, ptr noundef nonnull @__func__.H5ESget_requests, i32 noundef 241, i64 noundef %37, i64 noundef %38, ptr noundef nonnull @.str.3) #4
  br label %.thread40

40:                                               ; preds = %33
  %41 = call i32 @H5E_clear_stack() #4
  %42 = call ptr @H5I_object_verify(i64 noundef %0, i32 noundef 16) #4
  %43 = icmp eq ptr %42, null
  br i1 %43, label %44, label %48, !prof !14

44:                                               ; preds = %40
  %45 = load i64, ptr @H5E_ARGS_g, align 8, !tbaa !11
  %46 = load i64, ptr @H5E_BADTYPE_g, align 8, !tbaa !11
  %47 = call i32 (ptr, ptr, i32, i64, i64, ptr, ...) @H5E_printf_stack(ptr noundef nonnull @.str, ptr noundef nonnull @__func__.H5ESget_requests, i32 noundef 245, i64 noundef %45, i64 noundef %46, ptr noundef nonnull @.str.6) #4
  br label %.thread46

48:                                               ; preds = %40
  %or.cond = icmp ugt i32 %1, 2
  br i1 %or.cond, label %49, label %53, !prof !14

49:                                               ; preds = %48
  %50 = load i64, ptr @H5E_ARGS_g, align 8, !tbaa !11
  %51 = load i64, ptr @H5E_BADVALUE_g, align 8, !tbaa !11
  %52 = call i32 (ptr, ptr, i32, i64, i64, ptr, ...) @H5E_printf_stack(ptr noundef nonnull @.str, ptr noundef nonnull @__func__.H5ESget_requests, i32 noundef 247, i64 noundef %50, i64 noundef %51, ptr noundef nonnull @.str.10) #4
  br label %.thread46

53:                                               ; preds = %48
  %.not = icmp eq i64 %4, 0
  br i1 %.not, label %64, label %54

54:                                               ; preds = %53
  %55 = icmp ne ptr %3, null
  %56 = icmp ne ptr %2, null
  %or.cond3 = or i1 %56, %55
  br i1 %or.cond3, label %57, label %64

57:                                               ; preds = %54
  %58 = call i32 @H5ES__get_requests(ptr noundef nonnull %42, i32 noundef %1, ptr noundef %2, ptr noundef %3, i64 noundef %4) #4
  %59 = icmp slt i32 %58, 0
  br i1 %59, label %60, label %64, !prof !14

60:                                               ; preds = %57
  %61 = load i64, ptr @H5E_EVENTSET_g, align 8, !tbaa !11
  %62 = load i64, ptr @H5E_CANTGET_g, align 8, !tbaa !11
  %63 = call i32 (ptr, ptr, i32, i64, i64, ptr, ...) @H5E_printf_stack(ptr noundef nonnull @.str, ptr noundef nonnull @__func__.H5ESget_requests, i32 noundef 252, i64 noundef %61, i64 noundef %62, ptr noundef nonnull @.str.11) #4
  br label %.thread46

64:                                               ; preds = %57, %54, %53
  %.not31 = icmp eq ptr %5, null
  br i1 %.not31, label %69, label %65

65:                                               ; preds = %64
  %66 = getelementptr inbounds nuw i8, ptr %42, i64 40
  %67 = call i64 @H5ES__list_count(ptr noundef nonnull %66) #4
  store i64 %67, ptr %5, align 8, !tbaa !11
  br label %69

.thread46:                                        ; preds = %60, %49, %44
  %68 = call i32 @H5CX_pop(i1 noundef zeroext true) #4
  br label %.thread40

69:                                               ; preds = %64, %65
  %70 = call i32 @H5CX_pop(i1 noundef zeroext true) #4
  br label %72

.thread40:                                        ; preds = %36, %29, %16, %.thread46
  %71 = call i32 @H5E_dump_api_stack() #4
  br label %72

72:                                               ; preds = %69, %.thread40
  %.0263543 = phi i32 [ -1, %.thread40 ], [ 0, %69 ]
  call void @llvm.lifetime.end.p0(i64 480, ptr nonnull %7) #4
  ret i32 %.0263543
}